target datalayout = "e-m:e-p270:32:32-p271:32:32-p272:64:64-i64:64-i128:128-f80:128-n8:16:32:64-S128"
target triple = "x86_64-unknown-linux-gnu"

%"class.cvc5::internal::theory::quantifiers::QuantifiersRewriter" = type { %"class.cvc5::internal::theory::TheoryRewriter", ptr, ptr }
%"class.cvc5::internal::theory::TheoryRewriter" = type { ptr }

@_ZTVN4cvc58internal6theory14TheoryRewriterE = external unnamed_addr constant { [12 x ptr] }, align 8

; Function Attrs: mustprogress nounwind uwtable
define linkonce_odr hidden void @_ZN4cvc58internal6theory14TheoryRewriterC2Ev(ptr noundef nonnull align 8 dereferenceable(8) %this) unnamed_addr #5 comdat align 2 {
entry:
  %this.addr = alloca ptr, align 8
  store ptr %this, ptr %this.addr, align 8
  %this1 = load ptr, ptr %this.addr, align 8
  store ptr getelementptr inbounds ({ [12 x ptr] }, ptr @_ZTVN4cvc58internal6theory14TheoryRewriterE, i32 0, i32 0, i32 2), ptr %this1, align 8
  ret void
}

; Function Attrs: mustprogress nounwind uwtable
define hidden void @_ZN4cvc58internal6theory11quantifiers19QuantifiersRewriterC2EPNS1_8RewriterERKNS0_7OptionsE(ptr noundef nonnull align 8 dereferenceable(24) %this, ptr noundef %r, ptr noundef nonnull align 8 dereferenceable(392) %opts) unnamed_addr #5 align 2 {
entry:
  %this.addr = alloca ptr, align 8
  %r.addr = alloca ptr, align 8
  %opts.addr = alloca ptr, align 8
  store ptr %this, ptr %this.addr, align 8
  store ptr %r, ptr %r.addr, align 8
  store ptr %opts, ptr %opts.addr, align 8
  %this1 = load ptr, ptr %this.addr, align 8
  call void @_ZN4cvc58internal6theory14TheoryRewriterC2Ev(ptr noundef nonnull align 8 dereferenceable(8) %this1) #3
  store ptr getelementptr inbounds ({ [12 x ptr] }, ptr @_ZTVN4cvc58internal6theory11quantifiers19QuantifiersRewriterE, i32 0, i32 0, i32 2), ptr %this1, align 8
  %d_rewriter = getelementptr inbounds %"class.cvc5::internal::theory::quantifiers::QuantifiersRewriter", ptr %this1, i32 0, i32 1
  %0 = load ptr, ptr %r.addr, align 8
  store ptr %0, ptr %d_rewriter, align 8
  %d_opts = getelementptr inbounds %"class.cvc5::internal::theory::quantifiers::QuantifiersRewriter", ptr %this1, i32 0, i32 2
  %1 = load ptr, ptr %opts.addr, align 8
  store ptr %1, ptr %d_opts, align 8
  ret void
}